(i__main__
details
p0
(dp1
S'tickets'
p2
(lp3
S'A1'
p4
aS'A2'
p5
aS'A3'
p6
asS'b_code'
p7
S'7N0B7G'
p8
sS'add'
p9
S'GH-14/283'
p10
sS'name'
p11
S'BHAVIK'
p12
sS'phnum'
p13
S'9506013147'
p14
sb.(i__main__
details
p0
(dp1
S'tickets'
p2
(lp3
S'a1'
p4
aS'a2'
p5
aS'a3'
p6
aS'a4'
p7
aS'a5'
p8
aS'a6'
p9
asS'b_code'
p10
S'9C0K1K'
p11
sS'add'
p12
S'BUJHBJK'
p13
sS'name'
p14
S'JHFYVVVCDXV'
p15
sS'phnum'
p16
S'9855214'
p17
sb.